target datalayout = "e-m:e-p270:32:32-p271:32:32-p272:64:64-i64:64-i128:128-f80:128-n8:16:32:64-S128"
target triple = "x86_64-pc-linux-gnu"

%"struct.duckdb_zstd::ZSTD_customMem" = type { ptr, ptr, ptr }
%"struct.duckdb_zstd::ZSTD_DCtx_s" = type { ptr, ptr, ptr, ptr, %"struct.duckdb_zstd::ZSTD_entropyDTables_t", [640 x i32], ptr, ptr, ptr, ptr, i64, %"struct.duckdb_zstd::ZSTD_frameHeader", i64, i64, i32, i32, i32, i32, %"struct.duckdb_zstd::XXH64_state_s", i64, i32, i32, i32, ptr, %"struct.duckdb_zstd::ZSTD_customMem", i64, i64, i64, i32, i32, ptr, ptr, i32, i32, i32, ptr, i32, i32, i32, i32, ptr, i64, i64, i64, ptr, i64, i64, i64, i64, i32, i32, i32, %"struct.duckdb_zstd::ZSTD_outBuffer_s", ptr, ptr, i32, [65568 x i8], [18 x i8], i64, i64 }
%"struct.duckdb_zstd::ZSTD_entropyDTables_t" = type { [513 x %"struct.duckdb_zstd::ZSTD_seqSymbol"], [257 x %"struct.duckdb_zstd::ZSTD_seqSymbol"], [513 x %"struct.duckdb_zstd::ZSTD_seqSymbol"], [4097 x i32], [3 x i32], [157 x i32] }
%"struct.duckdb_zstd::ZSTD_seqSymbol" = type { i16, i8, i8, i32 }
%"struct.duckdb_zstd::ZSTD_frameHeader" = type { i64, i64, i32, i32, i32, i32, i32, i32, i32 }
%"struct.duckdb_zstd::XXH64_state_s" = type { i64, i64, i64, i64, i64, [4 x i64], i32, [2 x i32] }
%"struct.duckdb_zstd::ZSTD_outBuffer_s" = type { ptr, i64, i64 }

; Function Attrs: mustprogress uwtable
define internal void @_ZN11duckdb_zstdL14ZSTD_clearDictEPNS_11ZSTD_DCtx_sE(ptr noundef %0) #0 {
  %2 = alloca ptr, align 8
  store ptr %0, ptr %2, align 8, !tbaa !3
  %3 = load ptr, ptr %2, align 8, !tbaa !3
  %4 = getelementptr inbounds nuw %"struct.duckdb_zstd::ZSTD_DCtx_s", ptr %3, i32 0, i32 30
  %5 = load ptr, ptr %4, align 8, !tbaa !8
  %6 = call noundef i64 @_ZN11duckdb_zstd14ZSTD_freeDDictEPNS_12ZSTD_DDict_sE(ptr noundef %5)
  %7 = load ptr, ptr %2, align 8, !tbaa !3
  %8 = getelementptr inbounds nuw %"struct.duckdb_zstd::ZSTD_DCtx_s", ptr %7, i32 0, i32 30
  store ptr null, ptr %8, align 8, !tbaa !8
  %9 = load ptr, ptr %2, align 8, !tbaa !3
  %10 = getelementptr inbounds nuw %"struct.duckdb_zstd::ZSTD_DCtx_s", ptr %9, i32 0, i32 31
  store ptr null, ptr %10, align 8, !tbaa !37
  %11 = load ptr, ptr %2, align 8, !tbaa !3
  %12 = getelementptr inbounds nuw %"struct.duckdb_zstd::ZSTD_DCtx_s", ptr %11, i32 0, i32 34
  store i32 0, ptr %12, align 8, !tbaa !40
  ret void
}

; Function Attrs: mustprogress uwtable
define noundef i64 @_ZN11duckdb_zstd33ZSTD_DCtx_loadDictionary_advancedEPNS_11ZSTD_DCtx_sEPKvmNS_21ZSTD_dictLoadMethod_eENS_22ZSTD_dictContentType_eE(ptr noundef %0, ptr noundef %1, i64 noundef %2, i32 noundef %3, i32 noundef %4) #0 {
  %6 = alloca i64, align 8
  %7 = alloca ptr, align 8
  %8 = alloca ptr, align 8
  %9 = alloca i64, align 8
  %10 = alloca i32, align 4
  %11 = alloca i32, align 4
  %12 = alloca %"struct.duckdb_zstd::ZSTD_customMem", align 8
  store ptr %0, ptr %7, align 8, !tbaa !3
  store ptr %1, ptr %8, align 8, !tbaa !33
  store i64 %2, ptr %9, align 8, !tbaa !34
  store i32 %3, ptr %10, align 4, !tbaa !121
  store i32 %4, ptr %11, align 4, !tbaa !123
  br label %13

13:                                               ; preds = %5
  %14 = load ptr, ptr %7, align 8, !tbaa !3
  %15 = getelementptr inbounds nuw %"struct.duckdb_zstd::ZSTD_DCtx_s", ptr %14, i32 0, i32 39
  %16 = load i32, ptr %15, align 4, !tbaa !41
  %17 = icmp ne i32 %16, 0
  br i1 %17, label %18, label %27

18:                                               ; preds = %13
  br label %19

19:                                               ; preds = %18
  br label %20

20:                                               ; preds = %19
  br label %21

21:                                               ; preds = %20
  br label %22

22:                                               ; preds = %21
  br label %23

23:                                               ; preds = %22
  br label %24

24:                                               ; preds = %23
  br label %25

25:                                               ; preds = %24
  br label %26

26:                                               ; preds = %25
  store i64 -60, ptr %6, align 8
  br label %69

27:                                               ; preds = %13
  br label %28

28:                                               ; preds = %27
  %29 = load ptr, ptr %7, align 8, !tbaa !3
  call void @_ZN11duckdb_zstdL14ZSTD_clearDictEPNS_11ZSTD_DCtx_sE(ptr noundef %29)
  %30 = load ptr, ptr %8, align 8, !tbaa !33
  %31 = icmp ne ptr %30, null
  br i1 %31, label %32, label %68

32:                                               ; preds = %28
  %33 = load i64, ptr %9, align 8, !tbaa !34
  %34 = icmp ne i64 %33, 0
  br i1 %34, label %35, label %68

35:                                               ; preds = %32
  %36 = load ptr, ptr %8, align 8, !tbaa !33
  %37 = load i64, ptr %9, align 8, !tbaa !34
  %38 = load i32, ptr %10, align 4, !tbaa !121
  %39 = load i32, ptr %11, align 4, !tbaa !123
  %40 = load ptr, ptr %7, align 8, !tbaa !3
  %41 = getelementptr inbounds nuw %"struct.duckdb_zstd::ZSTD_DCtx_s", ptr %40, i32 0, i32 24
  call void @llvm.memcpy.p0.p0.i64(ptr align 8 %12, ptr align 8 %41, i64 24, i1 false), !tbaa.struct !47
  %42 = call noundef ptr @_ZN11duckdb_zstd25ZSTD_createDDict_advancedEPKvmNS_21ZSTD_dictLoadMethod_eENS_22ZSTD_dictContentType_eENS_14ZSTD_customMemE(ptr noundef %36, i64 noundef %37, i32 noundef %38, i32 noundef %39, ptr noundef byval(%"struct.duckdb_zstd::ZSTD_customMem") align 8 %12)
  %43 = load ptr, ptr %7, align 8, !tbaa !3
  %44 = getelementptr inbounds nuw %"struct.duckdb_zstd::ZSTD_DCtx_s", ptr %43, i32 0, i32 30
  store ptr %42, ptr %44, align 8, !tbaa !8
  br label %45

45:                                               ; preds = %35
  %46 = load ptr, ptr %7, align 8, !tbaa !3
  %47 = getelementptr inbounds nuw %"struct.duckdb_zstd::ZSTD_DCtx_s", ptr %46, i32 0, i32 30
  %48 = load ptr, ptr %47, align 8, !tbaa !8
  %49 = icmp eq ptr %48, null
  br i1 %49, label %50, label %59

50:                                               ; preds = %45
  br label %51

51:                                               ; preds = %50
  br label %52

52:                                               ; preds = %51
  br label %53

53:                                               ; preds = %52
  br label %54

54:                                               ; preds = %53
  br label %55

55:                                               ; preds = %54
  br label %56

56:                                               ; preds = %55
  br label %57

57:                                               ; preds = %56
  br label %58

58:                                               ; preds = %57
  store i64 -64, ptr %6, align 8
  br label %69

59:                                               ; preds = %45
  br label %60

60:                                               ; preds = %59
  %61 = load ptr, ptr %7, align 8, !tbaa !3
  %62 = getelementptr inbounds nuw %"struct.duckdb_zstd::ZSTD_DCtx_s", ptr %61, i32 0, i32 30
  %63 = load ptr, ptr %62, align 8, !tbaa !8
  %64 = load ptr, ptr %7, align 8, !tbaa !3
  %65 = getelementptr inbounds nuw %"struct.duckdb_zstd::ZSTD_DCtx_s", ptr %64, i32 0, i32 31
  store ptr %63, ptr %65, align 8, !tbaa !37
  %66 = load ptr, ptr %7, align 8, !tbaa !3
  %67 = getelementptr inbounds nuw %"struct.duckdb_zstd::ZSTD_DCtx_s", ptr %66, i32 0, i32 34
  store i32 -1, ptr %67, align 8, !tbaa !40
  br label %68

68:                                               ; preds = %60, %32, %28
  store i64 0, ptr %6, align 8
  br label %69

69:                                               ; preds = %68, %58, %26
  %70 = load i64, ptr %6, align 8
  ret i64 %70
}